target datalayout = "e-m:e-p270:32:32-p271:32:32-p272:64:64-i64:64-i128:128-f80:128-n8:16:32:64-S128"
target triple = "x86_64-pc-linux-gnu"

@last_sys_file_name = internal global ptr null, align 8
@last_csv_file_name = internal global ptr null, align 8
@last_json_file_name = internal global ptr null, align 8
@Log_destination = external global i32, align 4
@.str.4 = private unnamed_addr constant [12 x i8] c"syslogger.c\00", align 1
@.str.16 = private unnamed_addr constant [2 x i8] c"w\00", align 1
@.str.20 = private unnamed_addr constant [17 x i8] c"current_logfiles\00", align 1
@.str.21 = private unnamed_addr constant [31 x i8] c"could not remove file \22%s\22: %m\00", align 1
@__func__.update_metainfo_datafile = private unnamed_addr constant [25 x i8] c"update_metainfo_datafile\00", align 1
@pg_mode_mask = external global i32, align 4
@.str.22 = private unnamed_addr constant [21 x i8] c"current_logfiles.tmp\00", align 1
@.str.23 = private unnamed_addr constant [29 x i8] c"could not open file \22%s\22: %m\00", align 1
@.str.24 = private unnamed_addr constant [11 x i8] c"stderr %s\0A\00", align 1
@.str.25 = private unnamed_addr constant [30 x i8] c"could not write file \22%s\22: %m\00", align 1
@.str.26 = private unnamed_addr constant [11 x i8] c"csvlog %s\0A\00", align 1
@.str.27 = private unnamed_addr constant [12 x i8] c"jsonlog %s\0A\00", align 1
@.str.28 = private unnamed_addr constant [39 x i8] c"could not rename file \22%s\22 to \22%s\22: %m\00", align 1

; Function Attrs: nounwind uwtable
define internal void @update_metainfo_datafile() #4 {
  %1 = alloca ptr, align 8
  %2 = alloca i32, align 4
  %3 = alloca i32, align 4
  call void @llvm.lifetime.start.p0(i64 8, ptr %1) #12
  call void @llvm.lifetime.start.p0(i64 4, ptr %2) #12
  %4 = load i32, ptr @Log_destination, align 4
  %5 = and i32 %4, 1
  %6 = icmp ne i32 %5, 0
  br i1 %6, label %35, label %7

7:                                                ; preds = %0
  %8 = load i32, ptr @Log_destination, align 4
  %9 = and i32 %8, 8
  %10 = icmp ne i32 %9, 0
  br i1 %10, label %35, label %11

11:                                               ; preds = %7
  %12 = load i32, ptr @Log_destination, align 4
  %13 = and i32 %12, 16
  %14 = icmp ne i32 %13, 0
  br i1 %14, label %35, label %15

15:                                               ; preds = %11
  %16 = call i32 @unlink(ptr noundef @.str.20) #12
  %17 = icmp slt i32 %16, 0
  br i1 %17, label %18, label %34

18:                                               ; preds = %15
  %19 = call ptr @__errno_location() #14
  %20 = load i32, ptr %19, align 4
  %21 = icmp ne i32 %20, 2
  br i1 %21, label %22, label %34

22:                                               ; preds = %18
  br label %23

23:                                               ; preds = %22
  br i1 false, label %24, label %26

24:                                               ; preds = %23
  %25 = call zeroext i1 @errstart_cold(i32 noundef 15, ptr noundef null) #15
  br i1 %25, label %28, label %31

26:                                               ; preds = %23
  %27 = call zeroext i1 @errstart(i32 noundef 15, ptr noundef null)
  br i1 %27, label %28, label %31

28:                                               ; preds = %26, %24
  %29 = call i32 @errcode_for_file_access()
  %30 = call i32 (ptr, ...) @errmsg(ptr noundef @.str.21, ptr noundef @.str.20)
  call void @errfinish(ptr noundef @.str.4, i32 noundef 1490, ptr noundef @__func__.update_metainfo_datafile)
  br label %31

31:                                               ; preds = %28, %26, %24
  br label %32

32:                                               ; preds = %31
  br label %33

33:                                               ; preds = %32
  br label %34

34:                                               ; preds = %33, %18, %15
  store i32 1, ptr %3, align 4
  br label %157

35:                                               ; preds = %11, %7, %0
  %36 = load i32, ptr @pg_mode_mask, align 4
  %37 = call i32 @umask(i32 noundef %36) #12
  store i32 %37, ptr %2, align 4
  %38 = call noalias ptr @fopen(ptr noundef @.str.22, ptr noundef @.str.16)
  store ptr %38, ptr %1, align 8
  %39 = load i32, ptr %2, align 4
  %40 = call i32 @umask(i32 noundef %39) #12
  %41 = load ptr, ptr %1, align 8
  %42 = icmp ne ptr %41, null
  br i1 %42, label %43, label %46

43:                                               ; preds = %35
  %44 = load ptr, ptr %1, align 8
  %45 = call i32 @setvbuf(ptr noundef %44, ptr noundef null, i32 noundef 1, i64 noundef 0) #12
  br label %58

46:                                               ; preds = %35
  br label %47

47:                                               ; preds = %46
  br i1 false, label %48, label %50

48:                                               ; preds = %47
  %49 = call zeroext i1 @errstart_cold(i32 noundef 15, ptr noundef null) #15
  br i1 %49, label %52, label %55

50:                                               ; preds = %47
  %51 = call zeroext i1 @errstart(i32 noundef 15, ptr noundef null)
  br i1 %51, label %52, label %55

52:                                               ; preds = %50, %48
  %53 = call i32 @errcode_for_file_access()
  %54 = call i32 (ptr, ...) @errmsg(ptr noundef @.str.23, ptr noundef @.str.22)
  call void @errfinish(ptr noundef @.str.4, i32 noundef 1513, ptr noundef @__func__.update_metainfo_datafile)
  br label %55

55:                                               ; preds = %52, %50, %48
  br label %56

56:                                               ; preds = %55
  br label %57

57:                                               ; preds = %56
  store i32 1, ptr %3, align 4
  br label %157

58:                                               ; preds = %43
  %59 = load ptr, ptr @last_sys_file_name, align 8
  %60 = icmp ne ptr %59, null
  br i1 %60, label %61, label %85

61:                                               ; preds = %58
  %62 = load i32, ptr @Log_destination, align 4
  %63 = and i32 %62, 1
  %64 = icmp ne i32 %63, 0
  br i1 %64, label %65, label %85

65:                                               ; preds = %61
  %66 = load ptr, ptr %1, align 8
  %67 = load ptr, ptr @last_sys_file_name, align 8
  %68 = call i32 (ptr, ptr, ...) @pg_fprintf(ptr noundef %66, ptr noundef @.str.24, ptr noundef %67)
  %69 = icmp slt i32 %68, 0
  br i1 %69, label %70, label %84

70:                                               ; preds = %65
  br label %71

71:                                               ; preds = %70
  br i1 false, label %72, label %74

72:                                               ; preds = %71
  %73 = call zeroext i1 @errstart_cold(i32 noundef 15, ptr noundef null) #15
  br i1 %73, label %76, label %79

74:                                               ; preds = %71
  %75 = call zeroext i1 @errstart(i32 noundef 15, ptr noundef null)
  br i1 %75, label %76, label %79

76:                                               ; preds = %74, %72
  %77 = call i32 @errcode_for_file_access()
  %78 = call i32 (ptr, ...) @errmsg(ptr noundef @.str.25, ptr noundef @.str.22)
  call void @errfinish(ptr noundef @.str.4, i32 noundef 1524, ptr noundef @__func__.update_metainfo_datafile)
  br label %79

79:                                               ; preds = %76, %74, %72
  br label %80

80:                                               ; preds = %79
  br label %81

81:                                               ; preds = %80
  %82 = load ptr, ptr %1, align 8
  %83 = call i32 @fclose(ptr noundef %82)
  store i32 1, ptr %3, align 4
  br label %157

84:                                               ; preds = %65
  br label %85

85:                                               ; preds = %84, %61, %58
  %86 = load ptr, ptr @last_csv_file_name, align 8
  %87 = icmp ne ptr %86, null
  br i1 %87, label %88, label %112

88:                                               ; preds = %85
  %89 = load i32, ptr @Log_destination, align 4
  %90 = and i32 %89, 8
  %91 = icmp ne i32 %90, 0
  br i1 %91, label %92, label %112

92:                                               ; preds = %88
  %93 = load ptr, ptr %1, align 8
  %94 = load ptr, ptr @last_csv_file_name, align 8
  %95 = call i32 (ptr, ptr, ...) @pg_fprintf(ptr noundef %93, ptr noundef @.str.26, ptr noundef %94)
  %96 = icmp slt i32 %95, 0
  br i1 %96, label %97, label %111

97:                                               ; preds = %92
  br label %98

98:                                               ; preds = %97
  br i1 false, label %99, label %101

99:                                               ; preds = %98
  %100 = call zeroext i1 @errstart_cold(i32 noundef 15, ptr noundef null) #15
  br i1 %100, label %103, label %106

101:                                              ; preds = %98
  %102 = call zeroext i1 @errstart(i32 noundef 15, ptr noundef null)
  br i1 %102, label %103, label %106

103:                                              ; preds = %101, %99
  %104 = call i32 @errcode_for_file_access()
  %105 = call i32 (ptr, ...) @errmsg(ptr noundef @.str.25, ptr noundef @.str.22)
  call void @errfinish(ptr noundef @.str.4, i32 noundef 1537, ptr noundef @__func__.update_metainfo_datafile)
  br label %106

106:                                              ; preds = %103, %101, %99
  br label %107

107:                                              ; preds = %106
  br label %108

108:                                              ; preds = %107
  %109 = load ptr, ptr %1, align 8
  %110 = call i32 @fclose(ptr noundef %109)
  store i32 1, ptr %3, align 4
  br label %157

111:                                              ; preds = %92
  br label %112

112:                                              ; preds = %111, %88, %85
  %113 = load ptr, ptr @last_json_file_name, align 8
  %114 = icmp ne ptr %113, null
  br i1 %114, label %115, label %139

115:                                              ; preds = %112
  %116 = load i32, ptr @Log_destination, align 4
  %117 = and i32 %116, 16
  %118 = icmp ne i32 %117, 0
  br i1 %118, label %119, label %139

119:                                              ; preds = %115
  %120 = load ptr, ptr %1, align 8
  %121 = load ptr, ptr @last_json_file_name, align 8
  %122 = call i32 (ptr, ptr, ...) @pg_fprintf(ptr noundef %120, ptr noundef @.str.27, ptr noundef %121)
  %123 = icmp slt i32 %122, 0
  br i1 %123, label %124, label %138

124:                                              ; preds = %119
  br label %125

125:                                              ; preds = %124
  br i1 false, label %126, label %128

126:                                              ; preds = %125
  %127 = call zeroext i1 @errstart_cold(i32 noundef 15, ptr noundef null) #15
  br i1 %127, label %130, label %133

128:                                              ; preds = %125
  %129 = call zeroext i1 @errstart(i32 noundef 15, ptr noundef null)
  br i1 %129, label %130, label %133

130:                                              ; preds = %128, %126
  %131 = call i32 @errcode_for_file_access()
  %132 = call i32 (ptr, ...) @errmsg(ptr noundef @.str.25, ptr noundef @.str.22)
  call void @errfinish(ptr noundef @.str.4, i32 noundef 1550, ptr noundef @__func__.update_metainfo_datafile)
  br label %133

133:                                              ; preds = %130, %128, %126
  br label %134

134:                                              ; preds = %133
  br label %135

135:                                              ; preds = %134
  %136 = load ptr, ptr %1, align 8
  %137 = call i32 @fclose(ptr noundef %136)
  store i32 1, ptr %3, align 4
  br label %157

138:                                              ; preds = %119
  br label %139

139:                                              ; preds = %138, %115, %112
  %140 = load ptr, ptr %1, align 8
  %141 = call i32 @fclose(ptr noundef %140)
  %142 = call i32 @rename(ptr noundef @.str.22, ptr noundef @.str.20) #12
  %143 = icmp ne i32 %142, 0
  br i1 %143, label %144, label %156

144:                                              ; preds = %139
  br label %145

145:                                              ; preds = %144
  br i1 false, label %146, label %148

146:                                              ; preds = %145
  %147 = call zeroext i1 @errstart_cold(i32 noundef 15, ptr noundef null) #15
  br i1 %147, label %150, label %153

148:                                              ; preds = %145
  %149 = call zeroext i1 @errstart(i32 noundef 15, ptr noundef null)
  br i1 %149, label %150, label %153

150:                                              ; preds = %148, %146
  %151 = call i32 @errcode_for_file_access()
  %152 = call i32 (ptr, ...) @errmsg(ptr noundef @.str.28, ptr noundef @.str.22, ptr noundef @.str.20)
  call void @errfinish(ptr noundef @.str.4, i32 noundef 1561, ptr noundef @__func__.update_metainfo_datafile)
  br label %153

153:                                              ; preds = %150, %148, %146
  br label %154

154:                                              ; preds = %153
  br label %155

155:                                              ; preds = %154
  br label %156

156:                                              ; preds = %155, %139
  store i32 0, ptr %3, align 4
  br label %157

157:                                              ; preds = %156, %135, %108, %81, %57, %34
  call void @llvm.lifetime.end.p0(i64 4, ptr %2) #12
  call void @llvm.lifetime.end.p0(i64 8, ptr %1) #12
  %158 = load i32, ptr %3, align 4
  switch i32 %158, label %160 [
    i32 0, label %159
    i32 1, label %159
  ]

159:                                              ; preds = %157, %157
  ret void

160:                                              ; preds = %157
  unreachable
}