; Function Attrs: nounwind uwtable
define internal fastcc void @update_metainfo_datafile() unnamed_addr #5 {
  %1 = load i32, ptr @Log_destination, align 4
  %2 = and i32 %1, 25
  %or.cond23 = icmp eq i32 %2, 0
  br i1 %or.cond23, label %3, label %14

3:                                                ; preds = %0
  %4 = tail call i32 @unlink(ptr noundef nonnull @.str.20) #15
  %5 = icmp slt i32 %4, 0
  br i1 %5, label %6, label %78

6:                                                ; preds = %3
  %7 = tail call ptr @__errno_location() #17
  %8 = load i32, ptr %7, align 4
  %.not14 = icmp eq i32 %8, 2
  br i1 %.not14, label %78, label %9

9:                                                ; preds = %6
  %10 = tail call zeroext i1 @errstart(i32 noundef 15, ptr noundef null) #15
  br i1 %10, label %11, label %78

11:                                               ; preds = %9
  %12 = tail call i32 @errcode_for_file_access() #15
  %13 = tail call i32 (ptr, ...) @errmsg(ptr noundef nonnull @.str.21, ptr noundef nonnull @.str.20) #15
  tail call void @errfinish(ptr noundef nonnull @.str.4, i32 noundef 1490, ptr noundef nonnull @__func__.update_metainfo_datafile) #15
  br label %78

14:                                               ; preds = %0
  %15 = load i32, ptr @pg_mode_mask, align 4
  %16 = tail call i32 @umask(i32 noundef %15) #15
  %17 = tail call noalias ptr @fopen(ptr noundef nonnull @.str.22, ptr noundef nonnull @.str.16)
  %18 = tail call i32 @umask(i32 noundef %16) #15
  %.not15 = icmp eq ptr %17, null
  br i1 %.not15, label %22, label %19

19:                                               ; preds = %14
  %20 = tail call i32 @setvbuf(ptr noundef nonnull %17, ptr noundef null, i32 noundef 1, i64 noundef 0) #15
  %21 = load ptr, ptr @last_sys_file_name, align 8
  %.not16 = icmp eq ptr %21, null
  br i1 %.not16, label %40, label %27

22:                                               ; preds = %14
  %23 = tail call zeroext i1 @errstart(i32 noundef 15, ptr noundef null) #15
  br i1 %23, label %24, label %78

24:                                               ; preds = %22
  %25 = tail call i32 @errcode_for_file_access() #15
  %26 = tail call i32 (ptr, ...) @errmsg(ptr noundef nonnull @.str.23, ptr noundef nonnull @.str.22) #15
  tail call void @errfinish(ptr noundef nonnull @.str.4, i32 noundef 1513, ptr noundef nonnull @__func__.update_metainfo_datafile) #15
  br label %78

27:                                               ; preds = %19
  %28 = load i32, ptr @Log_destination, align 4
  %29 = and i32 %28, 1
  %.not17 = icmp eq i32 %29, 0
  br i1 %.not17, label %40, label %30

30:                                               ; preds = %27
  %31 = tail call i32 (ptr, ptr, ...) @pg_fprintf(ptr noundef nonnull %17, ptr noundef nonnull @.str.24, ptr noundef nonnull %21) #15
  %32 = icmp slt i32 %31, 0
  br i1 %32, label %33, label %40

33:                                               ; preds = %30
  %34 = tail call zeroext i1 @errstart(i32 noundef 15, ptr noundef null) #15
  br i1 %34, label %35, label %38

35:                                               ; preds = %33
  %36 = tail call i32 @errcode_for_file_access() #15
  %37 = tail call i32 (ptr, ...) @errmsg(ptr noundef nonnull @.str.25, ptr noundef nonnull @.str.22) #15
  tail call void @errfinish(ptr noundef nonnull @.str.4, i32 noundef 1524, ptr noundef nonnull @__func__.update_metainfo_datafile) #15
  br label %38

38:                                               ; preds = %35, %33
  %39 = tail call i32 @fclose(ptr noundef nonnull %17)
  br label %78

40:                                               ; preds = %30, %27, %19
  %41 = load ptr, ptr @last_csv_file_name, align 8
  %.not18 = icmp eq ptr %41, null
  br i1 %.not18, label %55, label %42

42:                                               ; preds = %40
  %43 = load i32, ptr @Log_destination, align 4
  %44 = and i32 %43, 8
  %.not19 = icmp eq i32 %44, 0
  br i1 %.not19, label %55, label %45

45:                                               ; preds = %42
  %46 = tail call i32 (ptr, ptr, ...) @pg_fprintf(ptr noundef nonnull %17, ptr noundef nonnull @.str.26, ptr noundef nonnull %41) #15
  %47 = icmp slt i32 %46, 0
  br i1 %47, label %48, label %55

48:                                               ; preds = %45
  %49 = tail call zeroext i1 @errstart(i32 noundef 15, ptr noundef null) #15
  br i1 %49, label %50, label %53

50:                                               ; preds = %48
  %51 = tail call i32 @errcode_for_file_access() #15
  %52 = tail call i32 (ptr, ...) @errmsg(ptr noundef nonnull @.str.25, ptr noundef nonnull @.str.22) #15
  tail call void @errfinish(ptr noundef nonnull @.str.4, i32 noundef 1537, ptr noundef nonnull @__func__.update_metainfo_datafile) #15
  br label %53

53:                                               ; preds = %50, %48
  %54 = tail call i32 @fclose(ptr noundef nonnull %17)
  br label %78

55:                                               ; preds = %45, %42, %40
  %56 = load ptr, ptr @last_json_file_name, align 8
  %.not20 = icmp eq ptr %56, null
  br i1 %.not20, label %70, label %57

57:                                               ; preds = %55
  %58 = load i32, ptr @Log_destination, align 4
  %59 = and i32 %58, 16
  %.not21 = icmp eq i32 %59, 0
  br i1 %.not21, label %70, label %60

60:                                               ; preds = %57
  %61 = tail call i32 (ptr, ptr, ...) @pg_fprintf(ptr noundef nonnull %17, ptr noundef nonnull @.str.27, ptr noundef nonnull %56) #15
  %62 = icmp slt i32 %61, 0
  br i1 %62, label %63, label %70

63:                                               ; preds = %60
  %64 = tail call zeroext i1 @errstart(i32 noundef 15, ptr noundef null) #15
  br i1 %64, label %65, label %68

65:                                               ; preds = %63
  %66 = tail call i32 @errcode_for_file_access() #15
  %67 = tail call i32 (ptr, ...) @errmsg(ptr noundef nonnull @.str.25, ptr noundef nonnull @.str.22) #15
  tail call void @errfinish(ptr noundef nonnull @.str.4, i32 noundef 1550, ptr noundef nonnull @__func__.update_metainfo_datafile) #15
  br label %68

68:                                               ; preds = %65, %63
  %69 = tail call i32 @fclose(ptr noundef nonnull %17)
  br label %78

70:                                               ; preds = %60, %57, %55
  %71 = tail call i32 @fclose(ptr noundef nonnull %17)
  %72 = tail call i32 @rename(ptr noundef nonnull @.str.22, ptr noundef nonnull @.str.20) #15
  %.not22 = icmp eq i32 %72, 0
  br i1 %.not22, label %78, label %73

73:                                               ; preds = %70
  %74 = tail call zeroext i1 @errstart(i32 noundef 15, ptr noundef null) #15
  br i1 %74, label %75, label %78

75:                                               ; preds = %73
  %76 = tail call i32 @errcode_for_file_access() #15
  %77 = tail call i32 (ptr, ...) @errmsg(ptr noundef nonnull @.str.28, ptr noundef nonnull @.str.22, ptr noundef nonnull @.str.20) #15
  tail call void @errfinish(ptr noundef nonnull @.str.4, i32 noundef 1561, ptr noundef nonnull @__func__.update_metainfo_datafile) #15
  br label %78

78:                                               ; preds = %70, %75, %73, %22, %24, %3, %6, %11, %9, %68, %53, %38
  ret void
}